; ModuleID = 'source-C-CXX/24/1093.cpp'
source_filename = "source-C-CXX/24/1093.cpp"
target datalayout = "e-m:e-p270:32:32-p271:32:32-p272:64:64-i64:64-f80:128-n8:16:32:64-S128"
target triple = "x86_64-pc-linux-gnu"

%"class.std::ios_base::Init" = type { i8 }
%"class.std::basic_istream" = type { i32 (...)**, i64, %"class.std::basic_ios" }
%"class.std::basic_ios" = type { %"class.std::ios_base", %"class.std::basic_ostream"*, i8, i8, %"class.std::basic_streambuf"*, %"class.std::ctype"*, %"class.std::num_put"*, %"class.std::num_get"* }
%"class.std::ios_base" = type { i32 (...)**, i64, i64, i32, i32, i32, %"struct.std::ios_base::_Callback_list"*, %"struct.std::ios_base::_Words", [8 x %"struct.std::ios_base::_Words"], i32, %"struct.std::ios_base::_Words"*, %"class.std::locale" }
%"struct.std::ios_base::_Callback_list" = type { %"struct.std::ios_base::_Callback_list"*, void (i32, %"class.std::ios_base"*, i32)*, i32, i32 }
%"struct.std::ios_base::_Words" = type { i8*, i64 }
%"class.std::locale" = type { %"class.std::locale::_Impl"* }
%"class.std::locale::_Impl" = type { i32, %"class.std::locale::facet"**, i64, %"class.std::locale::facet"**, i8** }
%"class.std::locale::facet" = type <{ i32 (...)**, i32, [4 x i8] }>
%"class.std::basic_ostream" = type { i32 (...)**, %"class.std::basic_ios" }
%"class.std::basic_streambuf" = type { i32 (...)**, i8*, i8*, i8*, i8*, i8*, i8*, %"class.std::locale" }
%"class.std::ctype" = type <{ %"class.std::locale::facet.base", [4 x i8], %struct.__locale_struct*, i8, [7 x i8], i32*, i32*, i16*, i8, [256 x i8], [256 x i8], i8, [6 x i8] }>
%"class.std::locale::facet.base" = type <{ i32 (...)**, i32 }>
%struct.__locale_struct = type { [13 x %struct.__locale_data*], i16*, i32*, i32*, [13 x i8*] }
%struct.__locale_data = type opaque
%"class.std::num_put" = type { %"class.std::locale::facet.base", [4 x i8] }
%"class.std::num_get" = type { %"class.std::locale::facet.base", [4 x i8] }

@_ZStL8__ioinit = internal global %"class.std::ios_base::Init" zeroinitializer, align 1
@__dso_handle = external hidden global i8
@_ZSt3cin = external global %"class.std::basic_istream", align 8
@_ZSt4cout = external global %"class.std::basic_ostream", align 8
@.str = private unnamed_addr constant [2 x i8] c"1\00", align 1
@.str.1 = private unnamed_addr constant [2 x i8] c"2\00", align 1
@llvm.global_ctors = appending global [1 x { i32, void ()*, i8* }] [{ i32, void ()*, i8* } { i32 65535, void ()* @_GLOBAL__sub_I_1093.cpp, i8* null }]

declare void @_ZNSt8ios_base4InitC1Ev(%"class.std::ios_base::Init"* nonnull align 1 dereferenceable(1)) unnamed_addr #0

; Function Attrs: nounwind
declare void @_ZNSt8ios_base4InitD1Ev(%"class.std::ios_base::Init"* nonnull align 1 dereferenceable(1)) unnamed_addr #1

; Function Attrs: nofree nounwind
declare i32 @__cxa_atexit(void (i8*)*, i8*, i8*) local_unnamed_addr #2

; Function Attrs: mustprogress norecurse sspstrong uwtable
define dso_local i32 @main() local_unnamed_addr #3 {
  %1 = alloca i32, align 4
  %2 = alloca [1000 x i32], align 16
  %3 = bitcast i32* %1 to i8*
  call void @llvm.lifetime.start.p0i8(i64 4, i8* nonnull %3) #7
  %4 = call nonnull align 8 dereferenceable(16) %"class.std::basic_istream"* @_ZNSirsERi(%"class.std::basic_istream"* nonnull align 8 dereferenceable(16) @_ZSt3cin, i32* nonnull align 4 dereferenceable(4) %1)
  %5 = bitcast [1000 x i32]* %2 to i8*
  call void @llvm.lifetime.start.p0i8(i64 4000, i8* nonnull %5) #7
  call void @llvm.memset.p0i8.i64(i8* noundef nonnull align 16 dereferenceable(4000) %5, i8 0, i64 4000, i1 false)
  %6 = load i32, i32* %1, align 4, !tbaa !5
  switch i32 %6, label %8 [
    i32 0, label %87
    i32 1, label %7
  ]

7:                                                ; preds = %0
  br label %87

8:                                                ; preds = %0
  %9 = getelementptr inbounds [1000 x i32], [1000 x i32]* %2, i64 0, i64 0
  store i32 2, i32* %9, align 16, !tbaa !5
  %10 = icmp sgt i32 %6, 1
  br i1 %10, label %11, label %52

11:                                               ; preds = %8, %49
  %12 = phi i32 [ %50, %49 ], [ 1, %8 ]
  br label %13

13:                                               ; preds = %11, %46
  %14 = phi i64 [ 0, %11 ], [ %18, %46 ]
  %15 = getelementptr inbounds [1000 x i32], [1000 x i32]* %2, i64 0, i64 %14
  %16 = load i32, i32* %15, align 4, !tbaa !5
  %17 = icmp eq i32 %16, 0
  %18 = add nuw nsw i64 %14, 1
  br i1 %17, label %19, label %46

19:                                               ; preds = %13
  %20 = getelementptr inbounds [1000 x i32], [1000 x i32]* %2, i64 0, i64 %18
  %21 = load i32, i32* %20, align 4, !tbaa !5
  %22 = icmp eq i32 %21, 0
  br i1 %22, label %23, label %46

23:                                               ; preds = %19
  %24 = add nuw nsw i64 %14, 2
  %25 = getelementptr inbounds [1000 x i32], [1000 x i32]* %2, i64 0, i64 %24
  %26 = load i32, i32* %25, align 4, !tbaa !5
  %27 = icmp eq i32 %26, 0
  br i1 %27, label %28, label %46

28:                                               ; preds = %23
  %29 = trunc i64 %14 to i32
  %30 = icmp eq i32 %29, 0
  br i1 %30, label %49, label %31

31:                                               ; preds = %28
  %32 = and i64 %14, 4294967295
  br label %33

33:                                               ; preds = %31, %44
  %34 = phi i64 [ 0, %31 ], [ %38, %44 ]
  %35 = getelementptr inbounds [1000 x i32], [1000 x i32]* %2, i64 0, i64 %34
  %36 = load i32, i32* %35, align 4, !tbaa !5
  %37 = icmp sgt i32 %36, 9
  %38 = add nuw nsw i64 %34, 1
  br i1 %37, label %39, label %44

39:                                               ; preds = %33
  %40 = getelementptr inbounds [1000 x i32], [1000 x i32]* %2, i64 0, i64 %38
  %41 = load i32, i32* %40, align 4, !tbaa !5
  %42 = add nsw i32 %41, 1
  store i32 %42, i32* %40, align 4, !tbaa !5
  %43 = urem i32 %36, 10
  store i32 %43, i32* %35, align 4, !tbaa !5
  br label %44

44:                                               ; preds = %33, %39
  %45 = icmp eq i64 %38, %32
  br i1 %45, label %49, label %33, !llvm.loop !9

46:                                               ; preds = %13, %23, %19
  %47 = shl nsw i32 %16, 1
  store i32 %47, i32* %15, align 4, !tbaa !5
  %48 = icmp eq i64 %18, 1000
  br i1 %48, label %49, label %13, !llvm.loop !11

49:                                               ; preds = %46, %44, %28
  %50 = add nuw nsw i32 %12, 1
  %51 = icmp eq i32 %50, %6
  br i1 %51, label %52, label %11, !llvm.loop !12

52:                                               ; preds = %49, %8
  br label %53

53:                                               ; preds = %100, %52
  %54 = phi i64 [ 0, %52 ], [ %72, %100 ]
  %55 = getelementptr inbounds [1000 x i32], [1000 x i32]* %2, i64 0, i64 %54
  %56 = load i32, i32* %55, align 8, !tbaa !5
  %57 = icmp eq i32 %56, 0
  %58 = or i64 %54, 1
  br i1 %57, label %59, label %68

59:                                               ; preds = %53
  %60 = getelementptr inbounds [1000 x i32], [1000 x i32]* %2, i64 0, i64 %58
  %61 = load i32, i32* %60, align 4, !tbaa !5
  %62 = icmp eq i32 %61, 0
  br i1 %62, label %63, label %68

63:                                               ; preds = %59
  %64 = add nuw nsw i64 %54, 2
  %65 = getelementptr inbounds [1000 x i32], [1000 x i32]* %2, i64 0, i64 %64
  %66 = load i32, i32* %65, align 8, !tbaa !5
  %67 = icmp eq i32 %66, 0
  br i1 %67, label %73, label %68

68:                                               ; preds = %53, %59, %63
  %69 = getelementptr inbounds [1000 x i32], [1000 x i32]* %2, i64 0, i64 %58
  %70 = load i32, i32* %69, align 4, !tbaa !5
  %71 = icmp eq i32 %70, 0
  %72 = add nuw nsw i64 %54, 2
  br i1 %71, label %91, label %100

73:                                               ; preds = %95, %63
  %74 = phi i64 [ %54, %63 ], [ %58, %95 ]
  %75 = trunc i64 %74 to i32
  %76 = icmp sgt i32 %75, 0
  br i1 %76, label %77, label %90

77:                                               ; preds = %73
  %78 = add nuw i64 %74, 4294967295
  %79 = and i64 %78, 4294967295
  br label %80

80:                                               ; preds = %77, %80
  %81 = phi i64 [ %79, %77 ], [ %86, %80 ]
  %82 = getelementptr inbounds [1000 x i32], [1000 x i32]* %2, i64 0, i64 %81
  %83 = load i32, i32* %82, align 4, !tbaa !5
  %84 = call nonnull align 8 dereferenceable(8) %"class.std::basic_ostream"* @_ZNSolsEi(%"class.std::basic_ostream"* nonnull align 8 dereferenceable(8) @_ZSt4cout, i32 %83)
  %85 = icmp sgt i64 %81, 0
  %86 = add nsw i64 %81, -1
  br i1 %85, label %80, label %90, !llvm.loop !13

87:                                               ; preds = %0, %7
  %88 = phi i8* [ getelementptr inbounds ([2 x i8], [2 x i8]* @.str.1, i64 0, i64 0), %7 ], [ getelementptr inbounds ([2 x i8], [2 x i8]* @.str, i64 0, i64 0), %0 ]
  %89 = call nonnull align 8 dereferenceable(8) %"class.std::basic_ostream"* @_ZSt16__ostream_insertIcSt11char_traitsIcEERSt13basic_ostreamIT_T0_ES6_PKS3_l(%"class.std::basic_ostream"* nonnull align 8 dereferenceable(8) @_ZSt4cout, i8* nonnull %88, i64 1)
  br label %90

90:                                               ; preds = %100, %80, %87, %73
  call void @llvm.lifetime.end.p0i8(i64 4000, i8* nonnull %5) #7
  call void @llvm.lifetime.end.p0i8(i64 4, i8* nonnull %3) #7
  ret i32 0

91:                                               ; preds = %68
  %92 = getelementptr inbounds [1000 x i32], [1000 x i32]* %2, i64 0, i64 %72
  %93 = load i32, i32* %92, align 8, !tbaa !5
  %94 = icmp eq i32 %93, 0
  br i1 %94, label %95, label %100

95:                                               ; preds = %91
  %96 = add nuw i64 %54, 3
  %97 = getelementptr inbounds [1000 x i32], [1000 x i32]* %2, i64 0, i64 %96
  %98 = load i32, i32* %97, align 4, !tbaa !5
  %99 = icmp eq i32 %98, 0
  br i1 %99, label %73, label %100

100:                                              ; preds = %95, %91, %68
  %101 = icmp eq i64 %72, 1000
  br i1 %101, label %90, label %53, !llvm.loop !14
}

; Function Attrs: argmemonly mustprogress nofree nosync nounwind willreturn
declare void @llvm.lifetime.start.p0i8(i64 immarg, i8* nocapture) #4

declare nonnull align 8 dereferenceable(16) %"class.std::basic_istream"* @_ZNSirsERi(%"class.std::basic_istream"* nonnull align 8 dereferenceable(16), i32* nonnull align 4 dereferenceable(4)) local_unnamed_addr #0

; Function Attrs: argmemonly mustprogress nofree nounwind willreturn writeonly
declare void @llvm.memset.p0i8.i64(i8* nocapture writeonly, i8, i64, i1 immarg) #5

; Function Attrs: argmemonly mustprogress nofree nosync nounwind willreturn
declare void @llvm.lifetime.end.p0i8(i64 immarg, i8* nocapture) #4

declare nonnull align 8 dereferenceable(8) %"class.std::basic_ostream"* @_ZNSolsEi(%"class.std::basic_ostream"* nonnull align 8 dereferenceable(8), i32) local_unnamed_addr #0

declare nonnull align 8 dereferenceable(8) %"class.std::basic_ostream"* @_ZSt16__ostream_insertIcSt11char_traitsIcEERSt13basic_ostreamIT_T0_ES6_PKS3_l(%"class.std::basic_ostream"* nonnull align 8 dereferenceable(8), i8*, i64) local_unnamed_addr #0

; Function Attrs: sspstrong uwtable
define internal void @_GLOBAL__sub_I_1093.cpp() #6 section ".text.startup" {
  tail call void @_ZNSt8ios_base4InitC1Ev(%"class.std::ios_base::Init"* nonnull align 1 dereferenceable(1) @_ZStL8__ioinit)
  %1 = tail call i32 @__cxa_atexit(void (i8*)* bitcast (void (%"class.std::ios_base::Init"*)* @_ZNSt8ios_base4InitD1Ev to void (i8*)*), i8* getelementptr inbounds (%"class.std::ios_base::Init", %"class.std::ios_base::Init"* @_ZStL8__ioinit, i64 0, i32 0), i8* nonnull @__dso_handle) #7
  ret void
}


!llvm.module.flags = !{!0, !1, !2, !3}
!llvm.ident = !{!4}

!0 = !{i32 1, !"wchar_size", i32 4}
!1 = !{i32 7, !"PIC Level", i32 2}
!2 = !{i32 7, !"PIE Level", i32 2}
!3 = !{i32 7, !"uwtable", i32 1}
!4 = !{!"clang version 13.0.0"}
!5 = !{!6, !6, i64 0}
!6 = !{!"int", !7, i64 0}
!7 = !{!"omnipotent char", !8, i64 0}
!8 = !{!"Simple C++ TBAA"}
!9 = distinct !{!9, !10}
!10 = !{!"llvm.loop.mustprogress"}
!11 = distinct !{!11, !10}
!12 = distinct !{!12, !10}
!13 = distinct !{!13, !10}
!14 = distinct !{!14, !10}
